; Function Attrs: nofree norecurse nosync nounwind memory(read, inaccessiblemem: none) uwtable
define range(i32 -2147483648, 2147483647) i32 @Gia_LutWhereIsPin(ptr noundef readonly captures(none) %0, i32 noundef %1, i32 noundef %2, ptr noundef readonly captures(none) %3) local_unnamed_addr #2 {
  %5 = getelementptr i8, ptr %0, i64 264
  %.val = load ptr, ptr %5, align 8, !tbaa !3
  %6 = getelementptr i8, ptr %.val, i64 8
  %.val.val = load ptr, ptr %6, align 8, !tbaa !28
  %7 = sext i32 %1 to i64
  %8 = getelementptr inbounds i32, ptr %.val.val, i64 %7
  %9 = load i32, ptr %8, align 4, !tbaa !29
  %10 = sext i32 %9 to i64
  %11 = getelementptr inbounds i32, ptr %.val.val, i64 %10
  %12 = load i32, ptr %11, align 4, !tbaa !29
  %13 = icmp sgt i32 %12, 0
  br i1 %13, label %.lr.ph, label %._crit_edge

.lr.ph:                                           ; preds = %4
  %14 = getelementptr inbounds nuw i8, ptr %11, i64 4
  %wide.trip.count = zext nneg i32 %12 to i64
  br label %15

15:                                               ; preds = %.lr.ph, %22
  %indvars.iv = phi i64 [ 0, %.lr.ph ], [ %indvars.iv.next, %22 ]
  %16 = getelementptr inbounds nuw i32, ptr %3, i64 %indvars.iv
  %17 = load i32, ptr %16, align 4, !tbaa !29
  %18 = sext i32 %17 to i64
  %19 = getelementptr inbounds i32, ptr %14, i64 %18
  %20 = load i32, ptr %19, align 4, !tbaa !29
  %21 = icmp eq i32 %20, %2
  br i1 %21, label %._crit_edge.loopexit.split.loop.exit16, label %22

22:                                               ; preds = %15
  %indvars.iv.next = add nuw nsw i64 %indvars.iv, 1
  %exitcond.not = icmp eq i64 %indvars.iv.next, %wide.trip.count
  br i1 %exitcond.not, label %._crit_edge, label %15, !llvm.loop !39

._crit_edge.loopexit.split.loop.exit16:           ; preds = %15
  %23 = trunc nuw nsw i64 %indvars.iv to i32
  br label %._crit_edge

._crit_edge:                                      ; preds = %22, %._crit_edge.loopexit.split.loop.exit16, %4
  %.010 = phi i32 [ -1, %4 ], [ %23, %._crit_edge.loopexit.split.loop.exit16 ], [ -1, %22 ]
  ret i32 %.010
}